target datalayout = "e-m:e-p270:32:32-p271:32:32-p272:64:64-i64:64-i128:128-f80:128-n8:16:32:64-S128"
target triple = "x86_64-pc-linux-gnu"

%struct.CvTermCriteria = type { i32, i32, double }
%class.CvLevMarq = type { %"struct.cv::Ptr", %"struct.cv::Ptr", %"struct.cv::Ptr", %"struct.cv::Ptr", %"struct.cv::Ptr", %"struct.cv::Ptr", %"struct.cv::Ptr", %"struct.cv::Ptr", %"struct.cv::Ptr", %"struct.cv::Ptr", double, double, i32, %struct.CvTermCriteria, i32, i32, i8, i32 }
%"struct.cv::Ptr" = type { %"class.std::shared_ptr" }
%"class.std::shared_ptr" = type { %"class.std::__shared_ptr" }
%"class.std::__shared_ptr" = type { ptr, %"class.std::__shared_count" }
%"class.std::__shared_count" = type { ptr }

; Function Attrs: mustprogress nounwind uwtable
define linkonce_odr hidden void @_ZNSt14__shared_countILN9__gnu_cxx12_Lock_policyE2EEC2Ev(ptr noundef nonnull align 8 dereferenceable(8) %0) unnamed_addr #5 comdat align 2 {
  %2 = alloca ptr, align 8
  store ptr %0, ptr %2, align 8
  %3 = load ptr, ptr %2, align 8
  %4 = getelementptr inbounds %"class.std::__shared_count", ptr %3, i32 0, i32 0
  store ptr null, ptr %4, align 8
  ret void
}

; Function Attrs: mustprogress nounwind uwtable
define linkonce_odr hidden void @_ZNSt12__shared_ptrI5CvMatLN9__gnu_cxx12_Lock_policyE2EEC2Ev(ptr noundef nonnull align 8 dereferenceable(16) %0) unnamed_addr #5 comdat align 2 {
  %2 = alloca ptr, align 8
  store ptr %0, ptr %2, align 8
  %3 = load ptr, ptr %2, align 8
  %4 = getelementptr inbounds %"class.std::__shared_ptr", ptr %3, i32 0, i32 0
  store ptr null, ptr %4, align 8
  %5 = getelementptr inbounds %"class.std::__shared_ptr", ptr %3, i32 0, i32 1
  call void @_ZNSt14__shared_countILN9__gnu_cxx12_Lock_policyE2EEC2Ev(ptr noundef nonnull align 8 dereferenceable(8) %5) #3
  ret void
}

; Function Attrs: mustprogress nounwind uwtable
define linkonce_odr hidden void @_ZNSt10shared_ptrI5CvMatEC2Ev(ptr noundef nonnull align 8 dereferenceable(16) %0) unnamed_addr #5 comdat align 2 {
  %2 = alloca ptr, align 8
  store ptr %0, ptr %2, align 8
  %3 = load ptr, ptr %2, align 8
  call void @_ZNSt12__shared_ptrI5CvMatLN9__gnu_cxx12_Lock_policyE2EEC2Ev(ptr noundef nonnull align 8 dereferenceable(16) %3) #3
  ret void
}

; Function Attrs: mustprogress nounwind uwtable
define linkonce_odr hidden void @_ZN2cv3PtrI5CvMatEC2Ev(ptr noundef nonnull align 8 dereferenceable(16) %0) unnamed_addr #5 comdat align 2 {
  %2 = alloca ptr, align 8
  store ptr %0, ptr %2, align 8
  %3 = load ptr, ptr %2, align 8
  call void @_ZNSt10shared_ptrI5CvMatEC2Ev(ptr noundef nonnull align 8 dereferenceable(16) %3) #3
  ret void
}

; Function Attrs: mustprogress uwtable
define void @_ZN9CvLevMarqC2Eii14CvTermCriteriab(ptr noundef nonnull align 8 dereferenceable(216) %0, i32 noundef %1, i32 noundef %2, i64 %3, double %4, i1 noundef zeroext %5) unnamed_addr #4 align 2 personality ptr @__gxx_personality_v0 {
  %7 = alloca %struct.CvTermCriteria, align 8
  %8 = alloca ptr, align 8
  %9 = alloca i32, align 4
  %10 = alloca i32, align 4
  %11 = alloca i8, align 1
  %12 = alloca %struct.CvTermCriteria, align 8
  %13 = alloca ptr, align 8
  %14 = alloca i32, align 4
  %15 = getelementptr inbounds { i64, double }, ptr %7, i32 0, i32 0
  store i64 %3, ptr %15, align 8
  %16 = getelementptr inbounds { i64, double }, ptr %7, i32 0, i32 1
  store double %4, ptr %16, align 8
  store ptr %0, ptr %8, align 8
  store i32 %1, ptr %9, align 4
  store i32 %2, ptr %10, align 4
  %17 = zext i1 %5 to i8
  store i8 %17, ptr %11, align 1
  %18 = load ptr, ptr %8, align 8
  %19 = getelementptr inbounds %class.CvLevMarq, ptr %18, i32 0, i32 0
  call void @_ZN2cv3PtrI5CvMatEC2Ev(ptr noundef nonnull align 8 dereferenceable(16) %19) #3
  %20 = getelementptr inbounds %class.CvLevMarq, ptr %18, i32 0, i32 1
  call void @_ZN2cv3PtrI5CvMatEC2Ev(ptr noundef nonnull align 8 dereferenceable(16) %20) #3
  %21 = getelementptr inbounds %class.CvLevMarq, ptr %18, i32 0, i32 2
  call void @_ZN2cv3PtrI5CvMatEC2Ev(ptr noundef nonnull align 8 dereferenceable(16) %21) #3
  %22 = getelementptr inbounds %class.CvLevMarq, ptr %18, i32 0, i32 3
  call void @_ZN2cv3PtrI5CvMatEC2Ev(ptr noundef nonnull align 8 dereferenceable(16) %22) #3
  %23 = getelementptr inbounds %class.CvLevMarq, ptr %18, i32 0, i32 4
  call void @_ZN2cv3PtrI5CvMatEC2Ev(ptr noundef nonnull align 8 dereferenceable(16) %23) #3
  %24 = getelementptr inbounds %class.CvLevMarq, ptr %18, i32 0, i32 5
  call void @_ZN2cv3PtrI5CvMatEC2Ev(ptr noundef nonnull align 8 dereferenceable(16) %24) #3
  %25 = getelementptr inbounds %class.CvLevMarq, ptr %18, i32 0, i32 6
  call void @_ZN2cv3PtrI5CvMatEC2Ev(ptr noundef nonnull align 8 dereferenceable(16) %25) #3
  %26 = getelementptr inbounds %class.CvLevMarq, ptr %18, i32 0, i32 7
  call void @_ZN2cv3PtrI5CvMatEC2Ev(ptr noundef nonnull align 8 dereferenceable(16) %26) #3
  %27 = getelementptr inbounds %class.CvLevMarq, ptr %18, i32 0, i32 8
  call void @_ZN2cv3PtrI5CvMatEC2Ev(ptr noundef nonnull align 8 dereferenceable(16) %27) #3
  %28 = getelementptr inbounds %class.CvLevMarq, ptr %18, i32 0, i32 9
  call void @_ZN2cv3PtrI5CvMatEC2Ev(ptr noundef nonnull align 8 dereferenceable(16) %28) #3
  %29 = load i32, ptr %9, align 4
  %30 = load i32, ptr %10, align 4
  call void @llvm.memcpy.p0.p0.i64(ptr align 8 %12, ptr align 8 %7, i64 16, i1 false)
  %31 = load i8, ptr %11, align 1
  %32 = trunc i8 %31 to i1
  %33 = getelementptr inbounds { i64, double }, ptr %12, i32 0, i32 0
  %34 = load i64, ptr %33, align 8
  %35 = getelementptr inbounds { i64, double }, ptr %12, i32 0, i32 1
  %36 = load double, ptr %35, align 8
  invoke void @_ZN9CvLevMarq4initEii14CvTermCriteriab(ptr noundef nonnull align 8 dereferenceable(216) %18, i32 noundef %29, i32 noundef %30, i64 %34, double %36, i1 noundef zeroext %32)
          to label %37 unwind label %38

37:                                               ; preds = %6
  ret void

38:                                               ; preds = %6
  %39 = landingpad { ptr, i32 }
          cleanup
  %40 = extractvalue { ptr, i32 } %39, 0
  store ptr %40, ptr %13, align 8
  %41 = extractvalue { ptr, i32 } %39, 1
  store i32 %41, ptr %14, align 4
  call void @_ZN2cv3PtrI5CvMatED2Ev(ptr noundef nonnull align 8 dereferenceable(16) %28) #3
  call void @_ZN2cv3PtrI5CvMatED2Ev(ptr noundef nonnull align 8 dereferenceable(16) %27) #3
  call void @_ZN2cv3PtrI5CvMatED2Ev(ptr noundef nonnull align 8 dereferenceable(16) %26) #3
  call void @_ZN2cv3PtrI5CvMatED2Ev(ptr noundef nonnull align 8 dereferenceable(16) %25) #3
  call void @_ZN2cv3PtrI5CvMatED2Ev(ptr noundef nonnull align 8 dereferenceable(16) %24) #3
  call void @_ZN2cv3PtrI5CvMatED2Ev(ptr noundef nonnull align 8 dereferenceable(16) %23) #3
  call void @_ZN2cv3PtrI5CvMatED2Ev(ptr noundef nonnull align 8 dereferenceable(16) %22) #3
  call void @_ZN2cv3PtrI5CvMatED2Ev(ptr noundef nonnull align 8 dereferenceable(16) %21) #3
  call void @_ZN2cv3PtrI5CvMatED2Ev(ptr noundef nonnull align 8 dereferenceable(16) %20) #3
  call void @_ZN2cv3PtrI5CvMatED2Ev(ptr noundef nonnull align 8 dereferenceable(16) %19) #3
  br label %42

42:                                               ; preds = %38
  %43 = load ptr, ptr %13, align 8
  %44 = load i32, ptr %14, align 4
  %45 = insertvalue { ptr, i32 } poison, ptr %43, 0
  %46 = insertvalue { ptr, i32 } %45, i32 %44, 1
  resume { ptr, i32 } %46
}