; Function Attrs: mustprogress uwtable
define void @_ZN9CvLevMarqC2Eii14CvTermCriteriab(ptr noundef nonnull align 8 dereferenceable(216) %0, i32 noundef %1, i32 noundef %2, i64 %3, double %4, i1 noundef zeroext %5) unnamed_addr #5 align 2 personality ptr @__gxx_personality_v0 {
  tail call void @llvm.memset.p0.i64(ptr noundef nonnull align 8 dereferenceable(160) %0, i8 0, i64 160, i1 false)
  invoke void @_ZN9CvLevMarq4initEii14CvTermCriteriab(ptr noundef nonnull align 8 dereferenceable(216) %0, i32 noundef %1, i32 noundef %2, i64 %3, double %4, i1 noundef zeroext %5)
          to label %7 unwind label %8

7:                                                ; preds = %6
  ret void

8:                                                ; preds = %6
  %9 = landingpad { ptr, i32 }
          cleanup
  %10 = getelementptr inbounds i8, ptr %0, i64 144
  %11 = getelementptr inbounds i8, ptr %0, i64 128
  %12 = getelementptr inbounds i8, ptr %0, i64 112
  %13 = getelementptr inbounds i8, ptr %0, i64 96
  %14 = getelementptr inbounds i8, ptr %0, i64 80
  %15 = getelementptr inbounds i8, ptr %0, i64 64
  %16 = getelementptr inbounds i8, ptr %0, i64 48
  %17 = getelementptr inbounds i8, ptr %0, i64 32
  %18 = getelementptr inbounds i8, ptr %0, i64 16
  tail call void @_ZN2cv3PtrI5CvMatED2Ev(ptr noundef nonnull align 8 dereferenceable(16) %10) #17
  tail call void @_ZN2cv3PtrI5CvMatED2Ev(ptr noundef nonnull align 8 dereferenceable(16) %11) #17
  tail call void @_ZN2cv3PtrI5CvMatED2Ev(ptr noundef nonnull align 8 dereferenceable(16) %12) #17
  tail call void @_ZN2cv3PtrI5CvMatED2Ev(ptr noundef nonnull align 8 dereferenceable(16) %13) #17
  tail call void @_ZN2cv3PtrI5CvMatED2Ev(ptr noundef nonnull align 8 dereferenceable(16) %14) #17
  tail call void @_ZN2cv3PtrI5CvMatED2Ev(ptr noundef nonnull align 8 dereferenceable(16) %15) #17
  tail call void @_ZN2cv3PtrI5CvMatED2Ev(ptr noundef nonnull align 8 dereferenceable(16) %16) #17
  tail call void @_ZN2cv3PtrI5CvMatED2Ev(ptr noundef nonnull align 8 dereferenceable(16) %17) #17
  tail call void @_ZN2cv3PtrI5CvMatED2Ev(ptr noundef nonnull align 8 dereferenceable(16) %18) #17
  tail call void @_ZN2cv3PtrI5CvMatED2Ev(ptr noundef nonnull align 8 dereferenceable(16) %0) #17
  resume { ptr, i32 } %9
}